target datalayout = "e-m:e-p270:32:32-p271:32:32-p272:64:64-i64:64-i128:128-f80:128-n8:16:32:64-S128"
target triple = "x86_64-pc-linux-gnu"

%"class.google::protobuf::StringPiece" = type { ptr, i64 }
%"struct.google::protobuf::internal::EnumEntry" = type <{ %"class.google::protobuf::StringPiece", i32, [4 x i8] }>
%class.anon = type <{ ptr, i32, [4 x i8] }>
%"struct.__gnu_cxx::__ops::_Iter_comp_val.0" = type { %class.anon }

; Function Attrs: mustprogress nounwind uwtable
define internal noundef i32 @_ZN6google8protobuf8internal12_GLOBAL__N_18GetValueEPKNS1_9EnumEntryEii(ptr noundef %0, i32 noundef %1, i32 noundef %2) #9 {
  %4 = alloca i32, align 4
  %5 = alloca ptr, align 8
  %6 = alloca i32, align 4
  %7 = alloca i32, align 4
  store ptr %0, ptr %5, align 8, !tbaa !3
  store i32 %1, ptr %6, align 4, !tbaa !19
  store i32 %2, ptr %7, align 4, !tbaa !19
  %8 = load i32, ptr %6, align 4, !tbaa !19
  %9 = icmp eq i32 %8, -1
  br i1 %9, label %10, label %12

10:                                               ; preds = %3
  %11 = load i32, ptr %7, align 4, !tbaa !19
  store i32 %11, ptr %4, align 4
  br label %19

12:                                               ; preds = %3
  %13 = load ptr, ptr %5, align 8, !tbaa !3
  %14 = load i32, ptr %6, align 4, !tbaa !19
  %15 = sext i32 %14 to i64
  %16 = getelementptr inbounds %"struct.google::protobuf::internal::EnumEntry", ptr %13, i64 %15
  %17 = getelementptr inbounds nuw %"struct.google::protobuf::internal::EnumEntry", ptr %16, i32 0, i32 1
  %18 = load i32, ptr %17, align 8, !tbaa !15
  store i32 %18, ptr %4, align 4
  br label %19

19:                                               ; preds = %12, %10
  %20 = load i32, ptr %4, align 4
  ret i32 %20
}

; Function Attrs: inlinehint mustprogress uwtable
define internal noundef zeroext i1 @"_ZZN6google8protobuf8internal14LookUpEnumNameEPKNS1_9EnumEntryEPKimiENK3$_0clEii"(ptr noundef nonnull align 8 dereferenceable(12) %0, i32 noundef %1, i32 noundef %2) #7 align 2 {
  %4 = alloca ptr, align 8
  %5 = alloca i32, align 4
  %6 = alloca i32, align 4
  store ptr %0, ptr %4, align 8, !tbaa !20
  store i32 %1, ptr %5, align 4, !tbaa !19
  store i32 %2, ptr %6, align 4, !tbaa !19
  %7 = load ptr, ptr %4, align 8
  %8 = getelementptr inbounds nuw %class.anon, ptr %7, i32 0, i32 0
  %9 = load ptr, ptr %8, align 8, !tbaa !21
  %10 = load i32, ptr %5, align 4, !tbaa !19
  %11 = getelementptr inbounds nuw %class.anon, ptr %7, i32 0, i32 1
  %12 = load i32, ptr %11, align 8, !tbaa !23
  %13 = call noundef i32 @_ZN6google8protobuf8internal12_GLOBAL__N_18GetValueEPKNS1_9EnumEntryEii(ptr noundef %9, i32 noundef %10, i32 noundef %12)
  %14 = getelementptr inbounds nuw %class.anon, ptr %7, i32 0, i32 0
  %15 = load ptr, ptr %14, align 8, !tbaa !21
  %16 = load i32, ptr %6, align 4, !tbaa !19
  %17 = getelementptr inbounds nuw %class.anon, ptr %7, i32 0, i32 1
  %18 = load i32, ptr %17, align 8, !tbaa !23
  %19 = call noundef i32 @_ZN6google8protobuf8internal12_GLOBAL__N_18GetValueEPKNS1_9EnumEntryEii(ptr noundef %15, i32 noundef %16, i32 noundef %18)
  %20 = icmp slt i32 %13, %19
  ret i1 %20
}

; Function Attrs: inlinehint mustprogress nounwind uwtable
define linkonce_odr void @_ZSt9__advanceIPKilEvRT_T0_St26random_access_iterator_tag(ptr noundef nonnull align 8 dereferenceable(8) %0, i64 noundef %1) #8 comdat {
  %3 = alloca ptr, align 8
  %4 = alloca i64, align 8
  store ptr %0, ptr %3, align 8, !tbaa !44
  store i64 %1, ptr %4, align 8, !tbaa !8
  %5 = load i64, ptr %4, align 8, !tbaa !8
  %6 = call i1 @llvm.is.constant.i64(i64 %5)
  br i1 %6, label %7, label %14

7:                                                ; preds = %2
  %8 = load i64, ptr %4, align 8, !tbaa !8
  %9 = icmp eq i64 %8, 1
  br i1 %9, label %10, label %14

10:                                               ; preds = %7
  %11 = load ptr, ptr %3, align 8, !tbaa !44
  %12 = load ptr, ptr %11, align 8, !tbaa !10
  %13 = getelementptr inbounds nuw i32, ptr %12, i32 1
  store ptr %13, ptr %11, align 8, !tbaa !10
  br label %30

14:                                               ; preds = %7, %2
  %15 = load i64, ptr %4, align 8, !tbaa !8
  %16 = call i1 @llvm.is.constant.i64(i64 %15)
  br i1 %16, label %17, label %24

17:                                               ; preds = %14
  %18 = load i64, ptr %4, align 8, !tbaa !8
  %19 = icmp eq i64 %18, -1
  br i1 %19, label %20, label %24

20:                                               ; preds = %17
  %21 = load ptr, ptr %3, align 8, !tbaa !44
  %22 = load ptr, ptr %21, align 8, !tbaa !10
  %23 = getelementptr inbounds i32, ptr %22, i32 -1
  store ptr %23, ptr %21, align 8, !tbaa !10
  br label %29

24:                                               ; preds = %17, %14
  %25 = load i64, ptr %4, align 8, !tbaa !8
  %26 = load ptr, ptr %3, align 8, !tbaa !44
  %27 = load ptr, ptr %26, align 8, !tbaa !10
  %28 = getelementptr inbounds i32, ptr %27, i64 %25
  store ptr %28, ptr %26, align 8, !tbaa !10
  br label %29

29:                                               ; preds = %24, %20
  br label %30

30:                                               ; preds = %29, %10
  ret void
}

; Function Attrs: inlinehint mustprogress nounwind uwtable
define linkonce_odr noundef i64 @_ZSt10__distanceIPKiENSt15iterator_traitsIT_E15difference_typeES3_S3_St26random_access_iterator_tag(ptr noundef %0, ptr noundef %1) #8 comdat {
  %3 = alloca ptr, align 8
  %4 = alloca ptr, align 8
  store ptr %0, ptr %3, align 8, !tbaa !10
  store ptr %1, ptr %4, align 8, !tbaa !10
  %5 = load ptr, ptr %4, align 8, !tbaa !10
  %6 = load ptr, ptr %3, align 8, !tbaa !10
  %7 = ptrtoint ptr %5 to i64
  %8 = ptrtoint ptr %6 to i64
  %9 = sub i64 %7, %8
  %10 = sdiv exact i64 %9, 4
  ret i64 %10
}

; Function Attrs: inlinehint mustprogress nounwind uwtable
define linkonce_odr void @_ZSt19__iterator_categoryIPKiENSt15iterator_traitsIT_E17iterator_categoryERKS3_(ptr noundef nonnull align 8 dereferenceable(8) %0) #8 comdat {
  %2 = alloca ptr, align 8
  store ptr %0, ptr %2, align 8, !tbaa !44
  ret void
}

; Function Attrs: mustprogress uwtable
define internal noundef zeroext i1 @"_ZN9__gnu_cxx5__ops14_Iter_comp_valIZN6google8protobuf8internal14LookUpEnumNameEPKNS4_9EnumEntryEPKimiE3$_0EclIS9_S8_EEbT_RT0_"(ptr noundef nonnull align 8 dereferenceable(16) %0, ptr noundef %1, ptr noundef nonnull align 4 dereferenceable(4) %2) #4 align 2 {
  %4 = alloca ptr, align 8
  %5 = alloca ptr, align 8
  %6 = alloca ptr, align 8
  store ptr %0, ptr %4, align 8, !tbaa !46
  store ptr %1, ptr %5, align 8, !tbaa !10
  store ptr %2, ptr %6, align 8, !tbaa !10
  %7 = load ptr, ptr %4, align 8
  %8 = getelementptr inbounds nuw %"struct.__gnu_cxx::__ops::_Iter_comp_val.0", ptr %7, i32 0, i32 0
  %9 = load ptr, ptr %5, align 8, !tbaa !10
  %10 = load i32, ptr %9, align 4, !tbaa !19
  %11 = load ptr, ptr %6, align 8, !tbaa !10
  %12 = load i32, ptr %11, align 4, !tbaa !19
  %13 = call noundef zeroext i1 @"_ZZN6google8protobuf8internal14LookUpEnumNameEPKNS1_9EnumEntryEPKimiENK3$_0clEii"(ptr noundef nonnull align 8 dereferenceable(12) %8, i32 noundef %10, i32 noundef %12)
  ret i1 %13
}

; Function Attrs: inlinehint mustprogress uwtable
define linkonce_odr void @_ZSt7advanceIPKilEvRT_T0_(ptr noundef nonnull align 8 dereferenceable(8) %0, i64 noundef %1) #7 comdat {
  %3 = alloca ptr, align 8
  %4 = alloca i64, align 8
  %5 = alloca i64, align 8
  store ptr %0, ptr %3, align 8, !tbaa !44
  store i64 %1, ptr %4, align 8, !tbaa !8
  call void @llvm.lifetime.start.p0(i64 8, ptr %5) #3
  %6 = load i64, ptr %4, align 8, !tbaa !8
  store i64 %6, ptr %5, align 8, !tbaa !8
  %7 = load ptr, ptr %3, align 8, !tbaa !44
  %8 = load i64, ptr %5, align 8, !tbaa !8
  %9 = load ptr, ptr %3, align 8, !tbaa !44
  call void @_ZSt19__iterator_categoryIPKiENSt15iterator_traitsIT_E17iterator_categoryERKS3_(ptr noundef nonnull align 8 dereferenceable(8) %9)
  call void @_ZSt9__advanceIPKilEvRT_T0_St26random_access_iterator_tag(ptr noundef nonnull align 8 dereferenceable(8) %7, i64 noundef %8)
  call void @llvm.lifetime.end.p0(i64 8, ptr %5) #3
  ret void
}

; Function Attrs: inlinehint mustprogress uwtable
define linkonce_odr noundef i64 @_ZSt8distanceIPKiENSt15iterator_traitsIT_E15difference_typeES3_S3_(ptr noundef %0, ptr noundef %1) #7 comdat {
  %3 = alloca ptr, align 8
  %4 = alloca ptr, align 8
  store ptr %0, ptr %3, align 8, !tbaa !10
  store ptr %1, ptr %4, align 8, !tbaa !10
  %5 = load ptr, ptr %3, align 8, !tbaa !10
  %6 = load ptr, ptr %4, align 8, !tbaa !10
  call void @_ZSt19__iterator_categoryIPKiENSt15iterator_traitsIT_E17iterator_categoryERKS3_(ptr noundef nonnull align 8 dereferenceable(8) %3)
  %7 = call noundef i64 @_ZSt10__distanceIPKiENSt15iterator_traitsIT_E15difference_typeES3_S3_St26random_access_iterator_tag(ptr noundef %5, ptr noundef %6)
  ret i64 %7
}

; Function Attrs: mustprogress nounwind uwtable
define internal void @"_ZN9__gnu_cxx5__ops14_Iter_comp_valIZN6google8protobuf8internal14LookUpEnumNameEPKNS4_9EnumEntryEPKimiE3$_0EC2ESA_"(ptr noundef nonnull align 8 dereferenceable(16) %0, ptr %1, i32 %2) unnamed_addr #9 align 2 {
  %4 = alloca %class.anon, align 8
  %5 = alloca ptr, align 8
  %6 = getelementptr inbounds nuw { ptr, i32 }, ptr %4, i32 0, i32 0
  store ptr %1, ptr %6, align 8
  %7 = getelementptr inbounds nuw { ptr, i32 }, ptr %4, i32 0, i32 1
  store i32 %2, ptr %7, align 8
  store ptr %0, ptr %5, align 8, !tbaa !46
  %8 = load ptr, ptr %5, align 8
  %9 = getelementptr inbounds nuw %"struct.__gnu_cxx::__ops::_Iter_comp_val.0", ptr %8, i32 0, i32 0
  call void @llvm.memcpy.p0.p0.i64(ptr align 8 %9, ptr align 8 %4, i64 16, i1 false), !tbaa.struct !24
  ret void
}

; Function Attrs: mustprogress uwtable
define internal noundef ptr @"_ZSt13__lower_boundIPKiiN9__gnu_cxx5__ops14_Iter_comp_valIZN6google8protobuf8internal14LookUpEnumNameEPKNS7_9EnumEntryES1_miE3$_0EEET_SD_SD_RKT0_T1_"(ptr noundef %0, ptr noundef %1, ptr noundef nonnull align 4 dereferenceable(4) %2, ptr %3, i32 %4) #4 {
  %6 = alloca %"struct.__gnu_cxx::__ops::_Iter_comp_val.0", align 8
  %7 = alloca ptr, align 8
  %8 = alloca ptr, align 8
  %9 = alloca ptr, align 8
  %10 = alloca i64, align 8
  %11 = alloca i64, align 8
  %12 = alloca ptr, align 8
  %13 = getelementptr inbounds nuw { ptr, i32 }, ptr %6, i32 0, i32 0
  store ptr %3, ptr %13, align 8
  %14 = getelementptr inbounds nuw { ptr, i32 }, ptr %6, i32 0, i32 1
  store i32 %4, ptr %14, align 8
  store ptr %0, ptr %7, align 8, !tbaa !10
  store ptr %1, ptr %8, align 8, !tbaa !10
  store ptr %2, ptr %9, align 8, !tbaa !10
  call void @llvm.lifetime.start.p0(i64 8, ptr %10) #3
  %15 = load ptr, ptr %7, align 8, !tbaa !10
  %16 = load ptr, ptr %8, align 8, !tbaa !10
  %17 = call noundef i64 @_ZSt8distanceIPKiENSt15iterator_traitsIT_E15difference_typeES3_S3_(ptr noundef %15, ptr noundef %16)
  store i64 %17, ptr %10, align 8, !tbaa !8
  br label %18

18:                                               ; preds = %39, %5
  %19 = load i64, ptr %10, align 8, !tbaa !8
  %20 = icmp sgt i64 %19, 0
  br i1 %20, label %21, label %40

21:                                               ; preds = %18
  call void @llvm.lifetime.start.p0(i64 8, ptr %11) #3
  %22 = load i64, ptr %10, align 8, !tbaa !8
  %23 = ashr i64 %22, 1
  store i64 %23, ptr %11, align 8, !tbaa !8
  call void @llvm.lifetime.start.p0(i64 8, ptr %12) #3
  %24 = load ptr, ptr %7, align 8, !tbaa !10
  store ptr %24, ptr %12, align 8, !tbaa !10
  %25 = load i64, ptr %11, align 8, !tbaa !8
  call void @_ZSt7advanceIPKilEvRT_T0_(ptr noundef nonnull align 8 dereferenceable(8) %12, i64 noundef %25)
  %26 = load ptr, ptr %12, align 8, !tbaa !10
  %27 = load ptr, ptr %9, align 8, !tbaa !10
  %28 = call noundef zeroext i1 @"_ZN9__gnu_cxx5__ops14_Iter_comp_valIZN6google8protobuf8internal14LookUpEnumNameEPKNS4_9EnumEntryEPKimiE3$_0EclIS9_S8_EEbT_RT0_"(ptr noundef nonnull align 8 dereferenceable(16) %6, ptr noundef %26, ptr noundef nonnull align 4 dereferenceable(4) %27)
  br i1 %28, label %29, label %37

29:                                               ; preds = %21
  %30 = load ptr, ptr %12, align 8, !tbaa !10
  store ptr %30, ptr %7, align 8, !tbaa !10
  %31 = load ptr, ptr %7, align 8, !tbaa !10
  %32 = getelementptr inbounds nuw i32, ptr %31, i32 1
  store ptr %32, ptr %7, align 8, !tbaa !10
  %33 = load i64, ptr %10, align 8, !tbaa !8
  %34 = load i64, ptr %11, align 8, !tbaa !8
  %35 = sub nsw i64 %33, %34
  %36 = sub nsw i64 %35, 1
  store i64 %36, ptr %10, align 8, !tbaa !8
  br label %39

37:                                               ; preds = %21
  %38 = load i64, ptr %11, align 8, !tbaa !8
  store i64 %38, ptr %10, align 8, !tbaa !8
  br label %39

39:                                               ; preds = %37, %29
  call void @llvm.lifetime.end.p0(i64 8, ptr %12) #3
  call void @llvm.lifetime.end.p0(i64 8, ptr %11) #3
  br label %18, !llvm.loop !43

40:                                               ; preds = %18
  %41 = load ptr, ptr %7, align 8, !tbaa !10
  call void @llvm.lifetime.end.p0(i64 8, ptr %10) #3
  ret ptr %41
}

; Function Attrs: inlinehint mustprogress uwtable
define internal { ptr, i32 } @"_ZN9__gnu_cxx5__ops15__iter_comp_valIZN6google8protobuf8internal14LookUpEnumNameEPKNS4_9EnumEntryEPKimiE3$_0EENS0_14_Iter_comp_valIT_EESC_"(ptr %0, i32 %1) #7 {
  %3 = alloca %"struct.__gnu_cxx::__ops::_Iter_comp_val.0", align 8
  %4 = alloca %class.anon, align 8
  %5 = alloca %class.anon, align 8
  %6 = getelementptr inbounds nuw { ptr, i32 }, ptr %4, i32 0, i32 0
  store ptr %0, ptr %6, align 8
  %7 = getelementptr inbounds nuw { ptr, i32 }, ptr %4, i32 0, i32 1
  store i32 %1, ptr %7, align 8
  call void @llvm.memcpy.p0.p0.i64(ptr align 8 %5, ptr align 8 %4, i64 16, i1 false), !tbaa.struct !24
  %8 = getelementptr inbounds nuw { ptr, i32 }, ptr %5, i32 0, i32 0
  %9 = load ptr, ptr %8, align 8
  %10 = getelementptr inbounds nuw { ptr, i32 }, ptr %5, i32 0, i32 1
  %11 = load i32, ptr %10, align 8
  call void @"_ZN9__gnu_cxx5__ops14_Iter_comp_valIZN6google8protobuf8internal14LookUpEnumNameEPKNS4_9EnumEntryEPKimiE3$_0EC2ESA_"(ptr noundef nonnull align 8 dereferenceable(16) %3, ptr %9, i32 %11)
  %12 = getelementptr inbounds nuw %"struct.__gnu_cxx::__ops::_Iter_comp_val.0", ptr %3, i32 0, i32 0
  %13 = load { ptr, i32 }, ptr %12, align 8
  ret { ptr, i32 } %13
}

; Function Attrs: inlinehint mustprogress uwtable
define internal noundef ptr @"_ZSt11lower_boundIPKiiZN6google8protobuf8internal14LookUpEnumNameEPKNS4_9EnumEntryES1_miE3$_0ET_S9_S9_RKT0_T1_"(ptr noundef %0, ptr noundef %1, ptr noundef nonnull align 4 dereferenceable(4) %2, ptr %3, i32 %4) #7 {
  %6 = alloca %class.anon, align 8
  %7 = alloca ptr, align 8
  %8 = alloca ptr, align 8
  %9 = alloca ptr, align 8
  %10 = alloca %"struct.__gnu_cxx::__ops::_Iter_comp_val.0", align 8
  %11 = alloca %class.anon, align 8
  %12 = getelementptr inbounds nuw { ptr, i32 }, ptr %6, i32 0, i32 0
  store ptr %3, ptr %12, align 8
  %13 = getelementptr inbounds nuw { ptr, i32 }, ptr %6, i32 0, i32 1
  store i32 %4, ptr %13, align 8
  store ptr %0, ptr %7, align 8, !tbaa !10
  store ptr %1, ptr %8, align 8, !tbaa !10
  store ptr %2, ptr %9, align 8, !tbaa !10
  %14 = load ptr, ptr %7, align 8, !tbaa !10
  %15 = load ptr, ptr %8, align 8, !tbaa !10
  %16 = load ptr, ptr %9, align 8, !tbaa !10
  call void @llvm.memcpy.p0.p0.i64(ptr align 8 %11, ptr align 8 %6, i64 16, i1 false), !tbaa.struct !24
  %17 = getelementptr inbounds nuw { ptr, i32 }, ptr %11, i32 0, i32 0
  %18 = load ptr, ptr %17, align 8
  %19 = getelementptr inbounds nuw { ptr, i32 }, ptr %11, i32 0, i32 1
  %20 = load i32, ptr %19, align 8
  %21 = call { ptr, i32 } @"_ZN9__gnu_cxx5__ops15__iter_comp_valIZN6google8protobuf8internal14LookUpEnumNameEPKNS4_9EnumEntryEPKimiE3$_0EENS0_14_Iter_comp_valIT_EESC_"(ptr %18, i32 %20)
  %22 = getelementptr inbounds nuw %"struct.__gnu_cxx::__ops::_Iter_comp_val.0", ptr %10, i32 0, i32 0
  %23 = getelementptr inbounds nuw { ptr, i32 }, ptr %22, i32 0, i32 0
  %24 = extractvalue { ptr, i32 } %21, 0
  store ptr %24, ptr %23, align 8
  %25 = getelementptr inbounds nuw { ptr, i32 }, ptr %22, i32 0, i32 1
  %26 = extractvalue { ptr, i32 } %21, 1
  store i32 %26, ptr %25, align 8
  %27 = getelementptr inbounds nuw { ptr, i32 }, ptr %10, i32 0, i32 0
  %28 = load ptr, ptr %27, align 8
  %29 = getelementptr inbounds nuw { ptr, i32 }, ptr %10, i32 0, i32 1
  %30 = load i32, ptr %29, align 8
  %31 = call noundef ptr @"_ZSt13__lower_boundIPKiiN9__gnu_cxx5__ops14_Iter_comp_valIZN6google8protobuf8internal14LookUpEnumNameEPKNS7_9EnumEntryES1_miE3$_0EEET_SD_SD_RKT0_T1_"(ptr noundef %14, ptr noundef %15, ptr noundef nonnull align 4 dereferenceable(4) %16, ptr %28, i32 %30)
  ret ptr %31
}

; Function Attrs: mustprogress uwtable
define noundef i32 @_ZN6google8protobuf8internal14LookUpEnumNameEPKNS1_9EnumEntryEPKimi(ptr noundef %0, ptr noundef %1, i64 noundef %2, i32 noundef %3) #4 {
  %5 = alloca i32, align 4
  %6 = alloca ptr, align 8
  %7 = alloca ptr, align 8
  %8 = alloca i64, align 8
  %9 = alloca i32, align 4
  %10 = alloca %class.anon, align 8
  %11 = alloca ptr, align 8
  %12 = alloca i32, align 4
  %13 = alloca %class.anon, align 8
  %14 = alloca i32, align 4
  store ptr %0, ptr %6, align 8, !tbaa !3
  store ptr %1, ptr %7, align 8, !tbaa !10
  store i64 %2, ptr %8, align 8, !tbaa !8
  store i32 %3, ptr %9, align 4, !tbaa !19
  call void @llvm.lifetime.start.p0(i64 16, ptr %10) #3
  %15 = getelementptr inbounds nuw %class.anon, ptr %10, i32 0, i32 0
  %16 = load ptr, ptr %6, align 8, !tbaa !3
  store ptr %16, ptr %15, align 8, !tbaa !21
  %17 = getelementptr inbounds nuw %class.anon, ptr %10, i32 0, i32 1
  %18 = load i32, ptr %9, align 4, !tbaa !19
  store i32 %18, ptr %17, align 8, !tbaa !23
  call void @llvm.lifetime.start.p0(i64 8, ptr %11) #3
  %19 = load ptr, ptr %7, align 8, !tbaa !10
  %20 = load ptr, ptr %7, align 8, !tbaa !10
  %21 = load i64, ptr %8, align 8, !tbaa !8
  %22 = getelementptr inbounds nuw i32, ptr %20, i64 %21
  call void @llvm.lifetime.start.p0(i64 4, ptr %12) #3
  store i32 -1, ptr %12, align 4, !tbaa !19
  call void @llvm.memcpy.p0.p0.i64(ptr align 8 %13, ptr align 8 %10, i64 16, i1 false), !tbaa.struct !24
  %23 = getelementptr inbounds nuw { ptr, i32 }, ptr %13, i32 0, i32 0
  %24 = load ptr, ptr %23, align 8
  %25 = getelementptr inbounds nuw { ptr, i32 }, ptr %13, i32 0, i32 1
  %26 = load i32, ptr %25, align 8
  %27 = call noundef ptr @"_ZSt11lower_boundIPKiiZN6google8protobuf8internal14LookUpEnumNameEPKNS4_9EnumEntryES1_miE3$_0ET_S9_S9_RKT0_T1_"(ptr noundef %19, ptr noundef %22, ptr noundef nonnull align 4 dereferenceable(4) %12, ptr %24, i32 %26)
  call void @llvm.lifetime.end.p0(i64 4, ptr %12) #3
  store ptr %27, ptr %11, align 8, !tbaa !10
  %28 = load ptr, ptr %11, align 8, !tbaa !10
  %29 = load ptr, ptr %7, align 8, !tbaa !10
  %30 = load i64, ptr %8, align 8, !tbaa !8
  %31 = getelementptr inbounds nuw i32, ptr %29, i64 %30
  %32 = icmp ne ptr %28, %31
  br i1 %32, label %33, label %51

33:                                               ; preds = %4
  %34 = load ptr, ptr %6, align 8, !tbaa !3
  %35 = load ptr, ptr %11, align 8, !tbaa !10
  %36 = load i32, ptr %35, align 4, !tbaa !19
  %37 = sext i32 %36 to i64
  %38 = getelementptr inbounds %"struct.google::protobuf::internal::EnumEntry", ptr %34, i64 %37
  %39 = getelementptr inbounds nuw %"struct.google::protobuf::internal::EnumEntry", ptr %38, i32 0, i32 1
  %40 = load i32, ptr %39, align 8, !tbaa !15
  %41 = load i32, ptr %9, align 4, !tbaa !19
  %42 = icmp eq i32 %40, %41
  br i1 %42, label %43, label %51

43:                                               ; preds = %33
  %44 = load ptr, ptr %11, align 8, !tbaa !10
  %45 = load ptr, ptr %7, align 8, !tbaa !10
  %46 = ptrtoint ptr %44 to i64
  %47 = ptrtoint ptr %45 to i64
  %48 = sub i64 %46, %47
  %49 = sdiv exact i64 %48, 4
  %50 = trunc i64 %49 to i32
  store i32 %50, ptr %5, align 4
  store i32 1, ptr %14, align 4
  br label %52

51:                                               ; preds = %33, %4
  store i32 -1, ptr %5, align 4
  store i32 1, ptr %14, align 4
  br label %52

52:                                               ; preds = %51, %43
  call void @llvm.lifetime.end.p0(i64 8, ptr %11) #3
  call void @llvm.lifetime.end.p0(i64 16, ptr %10) #3
  %53 = load i32, ptr %5, align 4
  ret i32 %53
}